target datalayout = "e-m:e-p270:32:32-p271:32:32-p272:64:64-i64:64-i128:128-f80:128-n8:16:32:64-S128"
target triple = "x86_64-pc-linux-gnu"

%"struct.std::atomic" = type { %"struct.std::__atomic_base" }
%"struct.std::__atomic_base" = type { i8 }
%"class.std::function.91" = type { %"class.std::_Function_base", ptr }
%"class.std::_Function_base" = type { %"union.std::_Any_data", ptr }
%"union.std::_Any_data" = type { %"union.std::_Nocopy_types" }
%"union.std::_Nocopy_types" = type { { i64, i64 } }
%"class.nix::Pid" = type { i32, i8, i32 }

@.str.5 = private unnamed_addr constant [33 x i8] c"cannot get exit status of PID %d\00", align 1
@_ZTIN3nix8SysErrorE = linkonce_odr constant { ptr, ptr, ptr } { ptr getelementptr inbounds (ptr, ptr @_ZTVN10__cxxabiv120__si_class_type_infoE, i64 2), ptr @_ZTSN3nix8SysErrorE, ptr @_ZTIN3nix11SystemErrorE }, comdat, align 8
@_ZN3nix14_isInterruptedE = external global %"struct.std::atomic", align 1
@_ZN3nix14interruptCheckE = external thread_local global %"class.std::function.91", align 8

; Function Attrs: mustprogress nounwind uwtable
define linkonce_odr noundef zeroext i1 @_ZNKSt14_Function_base8_M_emptyEv(ptr noundef nonnull align 8 dereferenceable(24) %0) #2 comdat align 2 {
  %2 = alloca ptr, align 8
  store ptr %0, ptr %2, align 8
  %3 = load ptr, ptr %2, align 8
  %4 = getelementptr inbounds %"class.std::_Function_base", ptr %3, i32 0, i32 1
  %5 = load ptr, ptr %4, align 8
  %6 = icmp ne ptr %5, null
  %7 = xor i1 %6, true
  ret i1 %7
}

; Function Attrs: noreturn nounwind uwtable
define linkonce_odr hidden void @__clang_call_terminate(ptr noundef %0) #6 comdat {
  %2 = call ptr @__cxa_begin_catch(ptr %0) #1
  call void @_ZSt9terminatev() #21
  unreachable
}

; Function Attrs: mustprogress nounwind uwtable
define linkonce_odr noundef i32 @_ZStanSt12memory_orderSt23__memory_order_modifier(i32 noundef %0, i32 noundef %1) #2 comdat {
  %3 = alloca i32, align 4
  %4 = alloca i32, align 4
  store i32 %0, ptr %3, align 4
  store i32 %1, ptr %4, align 4
  %5 = load i32, ptr %3, align 4
  %6 = load i32, ptr %4, align 4
  %7 = and i32 %5, %6
  ret i32 %7
}

; Function Attrs: mustprogress uwtable
define linkonce_odr noundef zeroext i1 @_ZNKSt8functionIFbvEEclEv(ptr noundef nonnull align 8 dereferenceable(32) %0) #5 comdat align 2 {
  %2 = alloca ptr, align 8
  store ptr %0, ptr %2, align 8
  %3 = load ptr, ptr %2, align 8
  %4 = call noundef zeroext i1 @_ZNKSt14_Function_base8_M_emptyEv(ptr noundef nonnull align 8 dereferenceable(24) %3)
  br i1 %4, label %5, label %6

5:                                                ; preds = %1
  call void @_ZSt25__throw_bad_function_callv() #22
  unreachable

6:                                                ; preds = %1
  %7 = getelementptr inbounds %"class.std::function.91", ptr %3, i32 0, i32 1
  %8 = load ptr, ptr %7, align 8
  %9 = getelementptr inbounds %"class.std::_Function_base", ptr %3, i32 0, i32 0
  %10 = call noundef zeroext i1 %8(ptr noundef nonnull align 8 dereferenceable(16) %9)
  ret i1 %10
}

; Function Attrs: mustprogress nounwind uwtable
define linkonce_odr noundef zeroext i1 @_ZNKSt8functionIFbvEEcvbEv(ptr noundef nonnull align 8 dereferenceable(32) %0) #2 comdat align 2 personality ptr @__gxx_personality_v0 {
  %2 = alloca ptr, align 8
  store ptr %0, ptr %2, align 8
  %3 = load ptr, ptr %2, align 8
  %4 = invoke noundef zeroext i1 @_ZNKSt14_Function_base8_M_emptyEv(ptr noundef nonnull align 8 dereferenceable(24) %3)
          to label %5 unwind label %7

5:                                                ; preds = %1
  %6 = xor i1 %4, true
  ret i1 %6

7:                                                ; preds = %1
  %8 = landingpad { ptr, i32 }
          catch ptr null
  %9 = extractvalue { ptr, i32 } %8, 0
  call void @__clang_call_terminate(ptr %9) #21
  unreachable
}

; Function Attrs: uwtable
define linkonce_odr hidden noundef ptr @_ZTWN3nix14interruptCheckE() #15 comdat {
  br i1 icmp ne (ptr @_ZTHN3nix14interruptCheckE, ptr null), label %1, label %2

1:                                                ; preds = %0
  call void @_ZTHN3nix14interruptCheckE()
  br label %2

2:                                                ; preds = %1, %0
  %3 = call align 8 ptr @llvm.threadlocal.address.p0(ptr align 8 @_ZN3nix14interruptCheckE)
  ret ptr %3
}

; Function Attrs: mustprogress nounwind uwtable
define linkonce_odr noundef zeroext i1 @_ZNKSt6atomicIbEcvbEv(ptr noundef nonnull align 1 dereferenceable(1) %0) #2 comdat align 2 personality ptr @__gxx_personality_v0 {
  %2 = alloca ptr, align 8
  %3 = alloca i32, align 4
  %4 = alloca i32, align 4
  %5 = alloca i8, align 1
  %6 = alloca ptr, align 8
  store ptr %0, ptr %6, align 8
  %7 = load ptr, ptr %6, align 8
  %8 = getelementptr inbounds %"struct.std::atomic", ptr %7, i32 0, i32 0
  store ptr %8, ptr %2, align 8
  store i32 5, ptr %3, align 4
  %9 = load ptr, ptr %2, align 8
  %10 = load i32, ptr %3, align 4
  %11 = invoke noundef i32 @_ZStanSt12memory_orderSt23__memory_order_modifier(i32 noundef %10, i32 noundef 65535)
          to label %12 unwind label %20

12:                                               ; preds = %1
  store i32 %11, ptr %4, align 4
  %13 = load i32, ptr %3, align 4
  switch i32 %13, label %14 [
    i32 1, label %16
    i32 2, label %16
    i32 5, label %18
  ]

14:                                               ; preds = %12
  %15 = load atomic i8, ptr %9 monotonic, align 1
  store i8 %15, ptr %5, align 1
  br label %23

16:                                               ; preds = %12, %12
  %17 = load atomic i8, ptr %9 acquire, align 1
  store i8 %17, ptr %5, align 1
  br label %23

18:                                               ; preds = %12
  %19 = load atomic i8, ptr %9 seq_cst, align 1
  store i8 %19, ptr %5, align 1
  br label %23

20:                                               ; preds = %1
  %21 = landingpad { ptr, i32 }
          catch ptr null
  %22 = extractvalue { ptr, i32 } %21, 0
  call void @__clang_call_terminate(ptr %22) #21
  unreachable

23:                                               ; preds = %18, %16, %14
  %24 = load i8, ptr %5, align 1
  %25 = trunc i8 %24 to i1
  ret i1 %25
}

; Function Attrs: mustprogress uwtable
define linkonce_odr void @_ZN3nix14checkInterruptEv() #5 comdat {
  %1 = call noundef zeroext i1 @_ZNKSt6atomicIbEcvbEv(ptr noundef nonnull align 1 dereferenceable(1) @_ZN3nix14_isInterruptedE) #1
  br i1 %1, label %8, label %2

2:                                                ; preds = %0
  %3 = call ptr @_ZTWN3nix14interruptCheckE()
  %4 = call noundef zeroext i1 @_ZNKSt8functionIFbvEEcvbEv(ptr noundef nonnull align 8 dereferenceable(32) %3) #1
  br i1 %4, label %5, label %9

5:                                                ; preds = %2
  %6 = call ptr @_ZTWN3nix14interruptCheckE()
  %7 = call noundef zeroext i1 @_ZNKSt8functionIFbvEEclEv(ptr noundef nonnull align 8 dereferenceable(32) %6)
  br i1 %7, label %8, label %9

8:                                                ; preds = %5, %0
  call void @_ZN3nix12_interruptedEv()
  br label %9

9:                                                ; preds = %8, %5, %2
  ret void
}

; Function Attrs: mustprogress uwtable
define noundef i32 @_ZN3nix3Pid4waitEv(ptr noundef nonnull align 4 dereferenceable(12) %0) #5 align 2 personality ptr @__gxx_personality_v0 {
  %2 = alloca ptr, align 8
  %3 = alloca i32, align 4
  %4 = alloca i32, align 4
  %5 = alloca ptr, align 8
  %6 = alloca i32, align 4
  store ptr %0, ptr %2, align 8
  %7 = load ptr, ptr %2, align 8
  br label %8

8:                                                ; preds = %31, %1
  %9 = getelementptr inbounds %"class.nix::Pid", ptr %7, i32 0, i32 0
  %10 = load i32, ptr %9, align 4
  %11 = call i32 @waitpid(i32 noundef %10, ptr noundef %3, i32 noundef 0)
  store i32 %11, ptr %4, align 4
  %12 = load i32, ptr %4, align 4
  %13 = getelementptr inbounds %"class.nix::Pid", ptr %7, i32 0, i32 0
  %14 = load i32, ptr %13, align 4
  %15 = icmp eq i32 %12, %14
  br i1 %15, label %16, label %19

16:                                               ; preds = %8
  %17 = getelementptr inbounds %"class.nix::Pid", ptr %7, i32 0, i32 0
  store i32 -1, ptr %17, align 4
  %18 = load i32, ptr %3, align 4
  ret i32 %18

19:                                               ; preds = %8
  %20 = call ptr @__errno_location() #23
  %21 = load i32, ptr %20, align 4
  %22 = icmp ne i32 %21, 4
  br i1 %22, label %23, label %31

23:                                               ; preds = %19
  %24 = call ptr @__cxa_allocate_exception(i64 384) #1
  %25 = getelementptr inbounds %"class.nix::Pid", ptr %7, i32 0, i32 0
  invoke void @_ZN3nix8SysErrorC2IJA33_ciEEEDpRKT_(ptr noundef nonnull align 8 dereferenceable(380) %24, ptr noundef nonnull align 1 dereferenceable(33) @.str.5, ptr noundef nonnull align 4 dereferenceable(4) %25)
          to label %26 unwind label %27

26:                                               ; preds = %23
  call void @__cxa_throw(ptr %24, ptr @_ZTIN3nix8SysErrorE, ptr @_ZN3nix8SysErrorD2Ev) #22
  unreachable

27:                                               ; preds = %23
  %28 = landingpad { ptr, i32 }
          cleanup
  %29 = extractvalue { ptr, i32 } %28, 0
  store ptr %29, ptr %5, align 8
  %30 = extractvalue { ptr, i32 } %28, 1
  store i32 %30, ptr %6, align 4
  call void @__cxa_free_exception(ptr %24) #1
  br label %32

31:                                               ; preds = %19
  call void @_ZN3nix14checkInterruptEv()
  br label %8, !llvm.loop !4

32:                                               ; preds = %27
  %33 = load ptr, ptr %5, align 8
  %34 = load i32, ptr %6, align 4
  %35 = insertvalue { ptr, i32 } poison, ptr %33, 0
  %36 = insertvalue { ptr, i32 } %35, i32 %34, 1
  resume { ptr, i32 } %36
}