; Function Attrs: uwtable
define noundef i32 @_ZN3nix3Pid4waitEv(ptr noundef nonnull align 4 dereferenceable(12) %0) local_unnamed_addr #9 align 2 personality ptr @__gxx_personality_v0 {
  %2 = alloca i32, align 4
  %3 = load i32, ptr %0, align 4
  %4 = call i32 @waitpid(i32 noundef %3, ptr noundef nonnull %2, i32 noundef 0)
  %5 = load i32, ptr %0, align 4
  %6 = icmp eq i32 %4, %5
  br i1 %6, label %._crit_edge, label %.lr.ph

.lr.ph:                                           ; preds = %1
  %7 = tail call ptr @__errno_location() #35
  %8 = call align 8 ptr @llvm.threadlocal.address.p0(ptr align 8 @_ZN3nix14interruptCheckE)
  %9 = getelementptr inbounds i8, ptr %8, i64 16
  %10 = getelementptr inbounds i8, ptr %8, i64 24
  br label %12

._crit_edge:                                      ; preds = %_ZN3nix14checkInterruptEv.exit, %1
  store i32 -1, ptr %0, align 4
  %11 = load i32, ptr %2, align 4
  ret i32 %11

12:                                               ; preds = %.lr.ph, %_ZN3nix14checkInterruptEv.exit
  %13 = load i32, ptr %7, align 4
  %.not = icmp eq i32 %13, 4
  br i1 %.not, label %19, label %14

14:                                               ; preds = %12
  %15 = call ptr @__cxa_allocate_exception(i64 384) #32
  invoke void @_ZN3nix8SysErrorC2IJA33_ciEEEDpRKT_(ptr noundef nonnull align 8 dereferenceable(380) %15, ptr noundef nonnull align 1 dereferenceable(33) @.str.5, ptr noundef nonnull align 4 dereferenceable(4) %0)
          to label %16 unwind label %17

16:                                               ; preds = %14
  call void @__cxa_throw(ptr nonnull %15, ptr nonnull @_ZTIN3nix8SysErrorE, ptr nonnull @_ZN3nix8SysErrorD2Ev) #36
  unreachable

17:                                               ; preds = %14
  %18 = landingpad { ptr, i32 }
          cleanup
  call void @__cxa_free_exception(ptr %15) #32
  resume { ptr, i32 } %18

19:                                               ; preds = %12
  %20 = load atomic i8, ptr @_ZN3nix14_isInterruptedE seq_cst, align 1
  %21 = and i8 %20, 1
  %.not.i = icmp eq i8 %21, 0
  br i1 %.not.i, label %22, label %29

22:                                               ; preds = %19
  br i1 icmp ne (ptr @_ZTHN3nix14interruptCheckE, ptr null), label %23, label %_ZTWN3nix14interruptCheckE.exit.i

23:                                               ; preds = %22
  call void @_ZTHN3nix14interruptCheckE()
  br label %_ZTWN3nix14interruptCheckE.exit.i

_ZTWN3nix14interruptCheckE.exit.i:                ; preds = %23, %22
  %24 = load ptr, ptr %9, align 8
  %.not.i.i.not.i = icmp eq ptr %24, null
  br i1 %.not.i.i.not.i, label %_ZN3nix14checkInterruptEv.exit, label %25

25:                                               ; preds = %_ZTWN3nix14interruptCheckE.exit.i
  br i1 icmp ne (ptr @_ZTHN3nix14interruptCheckE, ptr null), label %_ZTWN3nix14interruptCheckE.exit1.i, label %_ZNKSt8functionIFbvEEclEv.exit.i

_ZTWN3nix14interruptCheckE.exit1.i:               ; preds = %25
  call void @_ZTHN3nix14interruptCheckE()
  %.pr.i = load ptr, ptr %9, align 8
  %.not.i.i2.i = icmp eq ptr %.pr.i, null
  br i1 %.not.i.i2.i, label %26, label %_ZNKSt8functionIFbvEEclEv.exit.i

26:                                               ; preds = %_ZTWN3nix14interruptCheckE.exit1.i
  call void @_ZSt25__throw_bad_function_callv() #36
  unreachable

_ZNKSt8functionIFbvEEclEv.exit.i:                 ; preds = %_ZTWN3nix14interruptCheckE.exit1.i, %25
  %27 = load ptr, ptr %10, align 8
  %28 = call noundef zeroext i1 %27(ptr noundef nonnull align 8 dereferenceable(16) %8)
  br i1 %28, label %29, label %_ZN3nix14checkInterruptEv.exit

29:                                               ; preds = %_ZNKSt8functionIFbvEEclEv.exit.i, %19
  call void @_ZN3nix12_interruptedEv()
  br label %_ZN3nix14checkInterruptEv.exit

_ZN3nix14checkInterruptEv.exit:                   ; preds = %_ZTWN3nix14interruptCheckE.exit.i, %_ZNKSt8functionIFbvEEclEv.exit.i, %29
  %30 = load i32, ptr %0, align 4
  %31 = call i32 @waitpid(i32 noundef %30, ptr noundef nonnull %2, i32 noundef 0)
  %32 = load i32, ptr %0, align 4
  %33 = icmp eq i32 %31, %32
  br i1 %33, label %._crit_edge, label %12, !llvm.loop !10
}